target datalayout = "e-m:e-p270:32:32-p271:32:32-p272:64:64-i64:64-i128:128-f80:128-n8:16:32:64-S128"
target triple = "x86_64-unknown-linux-gnu"

%"class.icu_75::MaybeStackArray" = type <{ ptr, i32, i8, [40 x i8], [3 x i8] }>
%"class.icu_75::numparse::impl::MinusSignMatcher" = type <{ %"class.icu_75::numparse::impl::SymbolMatcher", i8, [7 x i8] }>
%"class.icu_75::numparse::impl::SymbolMatcher" = type { %"class.icu_75::numparse::impl::NumberParseMatcher", %"class.icu_75::UnicodeString", ptr }
%"class.icu_75::numparse::impl::NumberParseMatcher" = type { ptr }
%"class.icu_75::UnicodeString" = type { %"class.icu_75::Replaceable", %"union.icu_75::UnicodeString::StackBufferOrFields" }
%"class.icu_75::Replaceable" = type { %"class.icu_75::UObject" }
%"class.icu_75::UObject" = type { ptr }
%"union.icu_75::UnicodeString::StackBufferOrFields" = type { %struct.anon.1, [32 x i8] }
%struct.anon.1 = type { i16, i32, i32, ptr }
%"class.icu_75::numparse::impl::AffixTokenMatcherWarehouse" = type { ptr, %"class.icu_75::numparse::impl::MinusSignMatcher", %"class.icu_75::numparse::impl::PlusSignMatcher", %"class.icu_75::numparse::impl::PercentMatcher", %"class.icu_75::numparse::impl::PermilleMatcher", %"class.icu_75::numparse::impl::CombinedCurrencyMatcher", %"class.icu_75::MemoryPool" }
%"class.icu_75::numparse::impl::PlusSignMatcher" = type <{ %"class.icu_75::numparse::impl::SymbolMatcher", i8, [7 x i8] }>
%"class.icu_75::numparse::impl::PercentMatcher" = type { %"class.icu_75::numparse::impl::SymbolMatcher" }
%"class.icu_75::numparse::impl::PermilleMatcher" = type { %"class.icu_75::numparse::impl::SymbolMatcher" }
%"class.icu_75::numparse::impl::CombinedCurrencyMatcher" = type { %"class.icu_75::numparse::impl::NumberParseMatcher", [4 x i16], %"class.icu_75::UnicodeString", %"class.icu_75::UnicodeString", i8, [8 x %"class.icu_75::UnicodeString"], %"class.icu_75::UnicodeString", %"class.icu_75::UnicodeString", %"class.icu_75::CharString" }
%"class.icu_75::CharString" = type { %"class.icu_75::MaybeStackArray", i32, [4 x i8] }
%"class.icu_75::MemoryPool" = type { i32, %"class.icu_75::MaybeStackArray.2" }
%"class.icu_75::MaybeStackArray.2" = type { ptr, i32, i8, [8 x ptr] }
%"struct.icu_75::numparse::impl::AffixTokenMatcherSetupData" = type <{ ptr, ptr, ptr, ptr, i32, [4 x i8] }>

@_ZTVN6icu_758numparse4impl13SymbolMatcherE = external unnamed_addr constant { [11 x ptr] }, align 8

; Function Attrs: mustprogress nounwind uwtable
define linkonce_odr noundef nonnull align 8 dereferenceable(8) ptr @_ZN6icu_758numparse4impl18NumberParseMatcheraSERKS2_(ptr noundef nonnull align 8 dereferenceable(8) %this, ptr noundef nonnull align 8 dereferenceable(8) %0) #0 comdat align 2 {
entry:
  %this.addr = alloca ptr, align 8
  %.addr = alloca ptr, align 8
  store ptr %this, ptr %this.addr, align 8
  store ptr %0, ptr %.addr, align 8
  %this1 = load ptr, ptr %this.addr, align 8
  ret ptr %this1
}

; Function Attrs: mustprogress nounwind uwtable
define linkonce_odr void @_ZN6icu_758numparse4impl13SymbolMatcherD2Ev(ptr noundef nonnull align 8 dereferenceable(80) %this) unnamed_addr #0 comdat align 2 {
entry:
  %this.addr = alloca ptr, align 8
  store ptr %this, ptr %this.addr, align 8
  %this1 = load ptr, ptr %this.addr, align 8
  store ptr getelementptr inbounds ({ [11 x ptr] }, ptr @_ZTVN6icu_758numparse4impl13SymbolMatcherE, i32 0, i32 0, i32 2), ptr %this1, align 8
  %fString = getelementptr inbounds %"class.icu_75::numparse::impl::SymbolMatcher", ptr %this1, i32 0, i32 1
  call void @_ZN6icu_7513UnicodeStringD1Ev(ptr noundef nonnull align 8 dereferenceable(64) %fString) #13
  call void @_ZN6icu_758numparse4impl18NumberParseMatcherD2Ev(ptr noundef nonnull align 8 dereferenceable(8) %this1) #13
  ret void
}

; Function Attrs: mustprogress nounwind uwtable
define linkonce_odr noundef nonnull align 8 dereferenceable(80) ptr @_ZN6icu_758numparse4impl13SymbolMatcheraSEOS2_(ptr noundef nonnull align 8 dereferenceable(80) %this, ptr noundef nonnull align 8 dereferenceable(80) %0) #0 comdat align 2 {
entry:
  %this.addr = alloca ptr, align 8
  %.addr = alloca ptr, align 8
  store ptr %this, ptr %this.addr, align 8
  store ptr %0, ptr %.addr, align 8
  %this1 = load ptr, ptr %this.addr, align 8
  %1 = load ptr, ptr %.addr, align 8
  %call = call noundef nonnull align 8 dereferenceable(8) ptr @_ZN6icu_758numparse4impl18NumberParseMatcheraSERKS2_(ptr noundef nonnull align 8 dereferenceable(8) %this1, ptr noundef nonnull align 8 dereferenceable(8) %1) #13
  %fString = getelementptr inbounds %"class.icu_75::numparse::impl::SymbolMatcher", ptr %this1, i32 0, i32 1
  %2 = load ptr, ptr %.addr, align 8
  %fString2 = getelementptr inbounds %"class.icu_75::numparse::impl::SymbolMatcher", ptr %2, i32 0, i32 1
  %call3 = call noundef nonnull align 8 dereferenceable(64) ptr @_ZN6icu_7513UnicodeStringaSEOS0_(ptr noundef nonnull align 8 dereferenceable(64) %fString, ptr noundef nonnull align 8 dereferenceable(64) %fString2) #13
  %3 = load ptr, ptr %.addr, align 8
  %fUniSet = getelementptr inbounds %"class.icu_75::numparse::impl::SymbolMatcher", ptr %3, i32 0, i32 2
  %4 = load ptr, ptr %fUniSet, align 8
  %fUniSet4 = getelementptr inbounds %"class.icu_75::numparse::impl::SymbolMatcher", ptr %this1, i32 0, i32 2
  store ptr %4, ptr %fUniSet4, align 8
  ret ptr %this1
}

; Function Attrs: mustprogress nounwind uwtable
define linkonce_odr void @_ZN6icu_758numparse4impl16MinusSignMatcherD2Ev(ptr noundef nonnull align 8 dereferenceable(81) %this) unnamed_addr #0 comdat align 2 {
entry:
  %this.addr = alloca ptr, align 8
  store ptr %this, ptr %this.addr, align 8
  %this1 = load ptr, ptr %this.addr, align 8
  call void @_ZN6icu_758numparse4impl13SymbolMatcherD2Ev(ptr noundef nonnull align 8 dereferenceable(80) %this1) #13
  ret void
}

; Function Attrs: mustprogress nounwind uwtable
define linkonce_odr noundef nonnull align 8 dereferenceable(81) ptr @_ZN6icu_758numparse4impl16MinusSignMatcheraSEOS2_(ptr noundef nonnull align 8 dereferenceable(81) %this, ptr noundef nonnull align 8 dereferenceable(81) %0) #0 comdat align 2 {
entry:
  %this.addr = alloca ptr, align 8
  %.addr = alloca ptr, align 8
  store ptr %this, ptr %this.addr, align 8
  store ptr %0, ptr %.addr, align 8
  %this1 = load ptr, ptr %this.addr, align 8
  %1 = load ptr, ptr %.addr, align 8
  %call = call noundef nonnull align 8 dereferenceable(80) ptr @_ZN6icu_758numparse4impl13SymbolMatcheraSEOS2_(ptr noundef nonnull align 8 dereferenceable(80) %this1, ptr noundef nonnull align 8 dereferenceable(80) %1) #13
  %2 = load ptr, ptr %.addr, align 8
  %fAllowTrailing = getelementptr inbounds %"class.icu_75::numparse::impl::MinusSignMatcher", ptr %2, i32 0, i32 1
  %3 = load i8, ptr %fAllowTrailing, align 8
  %tobool = trunc i8 %3 to i1
  %fAllowTrailing2 = getelementptr inbounds %"class.icu_75::numparse::impl::MinusSignMatcher", ptr %this1, i32 0, i32 1
  %frombool = zext i1 %tobool to i8
  store i8 %frombool, ptr %fAllowTrailing2, align 8
  ret ptr %this1
}

; Function Attrs: mustprogress uwtable
define noundef nonnull align 8 dereferenceable(8) ptr @_ZN6icu_758numparse4impl26AffixTokenMatcherWarehouse9minusSignEv(ptr noundef nonnull align 8 dereferenceable(1288) %this) #1 align 2 {
entry:
  %this.addr = alloca ptr, align 8
  %ref.tmp = alloca %"class.icu_75::numparse::impl::MinusSignMatcher", align 8
  store ptr %this, ptr %this.addr, align 8
  %this1 = load ptr, ptr %this.addr, align 8
  %fSetupData = getelementptr inbounds %"class.icu_75::numparse::impl::AffixTokenMatcherWarehouse", ptr %this1, i32 0, i32 0
  %0 = load ptr, ptr %fSetupData, align 8
  %dfs = getelementptr inbounds %"struct.icu_75::numparse::impl::AffixTokenMatcherSetupData", ptr %0, i32 0, i32 1
  %1 = load ptr, ptr %dfs, align 8
  call void @_ZN6icu_758numparse4impl16MinusSignMatcherC1ERKNS_20DecimalFormatSymbolsEb(ptr noundef nonnull align 8 dereferenceable(81) %ref.tmp, ptr noundef nonnull align 8 dereferenceable(2883) %1, i1 noundef zeroext true)
  %fMinusSign = getelementptr inbounds %"class.icu_75::numparse::impl::AffixTokenMatcherWarehouse", ptr %this1, i32 0, i32 1
  %call = call noundef nonnull align 8 dereferenceable(81) ptr @_ZN6icu_758numparse4impl16MinusSignMatcheraSEOS2_(ptr noundef nonnull align 8 dereferenceable(81) %fMinusSign, ptr noundef nonnull align 8 dereferenceable(81) %ref.tmp) #13
  call void @_ZN6icu_758numparse4impl16MinusSignMatcherD2Ev(ptr noundef nonnull align 8 dereferenceable(81) %ref.tmp) #13
  ret ptr %call
}